; ModuleID = '20/141.c'
source_filename = "20/141.c"
target datalayout = "e-m:e-p270:32:32-p271:32:32-p272:64:64-i64:64-f80:128-n8:16:32:64-S128"
target triple = "x86_64-pc-linux-gnu"

@.str = private unnamed_addr constant [6 x i8] c"%s %s\00", align 1
@.str.1 = private unnamed_addr constant [4 x i8] c"%s\0A\00", align 1

; Function Attrs: noinline nounwind uwtable
define dso_local void @main() #0 {
  %1 = alloca [15 x i8], align 1
  %2 = alloca [4 x i8], align 1
  %3 = alloca i32, align 4
  %4 = alloca i32, align 4
  %5 = alloca i32, align 4
  %6 = alloca i32, align 4
  br label %7

7:                                                ; preds = %62, %0
  %8 = getelementptr inbounds [15 x i8], [15 x i8]* %1, i64 0, i64 0
  %9 = getelementptr inbounds [4 x i8], [4 x i8]* %2, i64 0, i64 0
  %10 = call i32 (i8*, ...) @__isoc99_scanf(i8* getelementptr inbounds ([6 x i8], [6 x i8]* @.str, i64 0, i64 0), i8* %8, i8* %9)
  %11 = icmp ne i32 %10, -1
  br i1 %11, label %12, label %83

12:                                               ; preds = %7
  store i32 1, i32* %3, align 4
  %13 = getelementptr inbounds [15 x i8], [15 x i8]* %1, i64 0, i64 0
  %14 = load i8, i8* %13, align 1
  %15 = sext i8 %14 to i32
  store i32 %15, i32* %5, align 4
  store i32 0, i32* %6, align 4
  br label %16

16:                                               ; preds = %39, %12
  %17 = load i32, i32* %3, align 4
  %18 = sext i32 %17 to i64
  %19 = getelementptr inbounds [15 x i8], [15 x i8]* %1, i64 0, i64 %18
  %20 = load i8, i8* %19, align 1
  %21 = sext i8 %20 to i32
  %22 = icmp ne i32 %21, 0
  br i1 %22, label %23, label %42

23:                                               ; preds = %16
  %24 = load i32, i32* %3, align 4
  %25 = sext i32 %24 to i64
  %26 = getelementptr inbounds [15 x i8], [15 x i8]* %1, i64 0, i64 %25
  %27 = load i8, i8* %26, align 1
  %28 = sext i8 %27 to i32
  %29 = load i32, i32* %5, align 4
  %30 = icmp sgt i32 %28, %29
  br i1 %30, label %31, label %38

31:                                               ; preds = %23
  %32 = load i32, i32* %3, align 4
  %33 = sext i32 %32 to i64
  %34 = getelementptr inbounds [15 x i8], [15 x i8]* %1, i64 0, i64 %33
  %35 = load i8, i8* %34, align 1
  %36 = sext i8 %35 to i32
  store i32 %36, i32* %5, align 4
  %37 = load i32, i32* %3, align 4
  store i32 %37, i32* %6, align 4
  br label %38

38:                                               ; preds = %31, %23
  br label %39

39:                                               ; preds = %38
  %40 = load i32, i32* %3, align 4
  %41 = add nsw i32 %40, 1
  store i32 %41, i32* %3, align 4
  br label %16

42:                                               ; preds = %16
  %43 = load i32, i32* %3, align 4
  %44 = add nsw i32 %43, 3
  store i32 %44, i32* %4, align 4
  br label %45

45:                                               ; preds = %59, %42
  %46 = load i32, i32* %4, align 4
  %47 = load i32, i32* %6, align 4
  %48 = add nsw i32 %47, 3
  %49 = icmp sgt i32 %46, %48
  br i1 %49, label %50, label %62

50:                                               ; preds = %45
  %51 = load i32, i32* %4, align 4
  %52 = sub nsw i32 %51, 3
  %53 = sext i32 %52 to i64
  %54 = getelementptr inbounds [15 x i8], [15 x i8]* %1, i64 0, i64 %53
  %55 = load i8, i8* %54, align 1
  %56 = load i32, i32* %4, align 4
  %57 = sext i32 %56 to i64
  %58 = getelementptr inbounds [15 x i8], [15 x i8]* %1, i64 0, i64 %57
  store i8 %55, i8* %58, align 1
  br label %59

59:                                               ; preds = %50
  %60 = load i32, i32* %4, align 4
  %61 = add nsw i32 %60, -1
  store i32 %61, i32* %4, align 4
  br label %45

62:                                               ; preds = %45
  %63 = getelementptr inbounds [4 x i8], [4 x i8]* %2, i64 0, i64 0
  %64 = load i8, i8* %63, align 1
  %65 = load i32, i32* %6, align 4
  %66 = add nsw i32 %65, 1
  %67 = sext i32 %66 to i64
  %68 = getelementptr inbounds [15 x i8], [15 x i8]* %1, i64 0, i64 %67
  store i8 %64, i8* %68, align 1
  %69 = getelementptr inbounds [4 x i8], [4 x i8]* %2, i64 0, i64 1
  %70 = load i8, i8* %69, align 1
  %71 = load i32, i32* %6, align 4
  %72 = add nsw i32 %71, 2
  %73 = sext i32 %72 to i64
  %74 = getelementptr inbounds [15 x i8], [15 x i8]* %1, i64 0, i64 %73
  store i8 %70, i8* %74, align 1
  %75 = getelementptr inbounds [4 x i8], [4 x i8]* %2, i64 0, i64 2
  %76 = load i8, i8* %75, align 1
  %77 = load i32, i32* %6, align 4
  %78 = add nsw i32 %77, 3
  %79 = sext i32 %78 to i64
  %80 = getelementptr inbounds [15 x i8], [15 x i8]* %1, i64 0, i64 %79
  store i8 %76, i8* %80, align 1
  %81 = getelementptr inbounds [15 x i8], [15 x i8]* %1, i64 0, i64 0
  %82 = call i32 (i8*, ...) @printf(i8* getelementptr inbounds ([4 x i8], [4 x i8]* @.str.1, i64 0, i64 0), i8* %81)
  br label %7

83:                                               ; preds = %7
  ret void
}

declare dso_local i32 @__isoc99_scanf(i8*, ...) #1

declare dso_local i32 @printf(i8*, ...) #1


!llvm.module.flags = !{!0}
!llvm.ident = !{!1}

!0 = !{i32 1, !"wchar_size", i32 4}
!1 = !{!"clang version 10.0.0-4ubuntu1 "}
